(dp1
S'vocab_size'
p2
I67
sS'word_to_id'
p3
(dp4
S'\n'
I0
sS'!'
I1
sS' '
I2
sS'$'
I3
sS"'"
I4
sS'&'
I5
sS'-'
I6
sS','
I7
sS'.'
I8
sS'3'
I9
sS';'
I10
sS':'
I11
sS'?'
I12
sS'A'
I13
sS'C'
I14
sS'B'
I15
sS'E'
I16
sS'D'
I17
sS'G'
I18
sS'F'
I19
sS'I'
I20
sS'H'
I21
sS'K'
I22
sS'J'
I23
sS'M'
I24
sS'L'
I25
sS'O'
I26
sS'N'
I27
sS'Q'
I28
sS'P'
I29
sS'S'
I30
sS'R'
I31
sS'U'
I32
sS'T'
I33
sS'W'
I34
sS'V'
I35
sS'Y'
I36
sS'X'
I37
sS'['
I38
sS'Z'
I39
sS']'
I40
sS'a'
I41
sS'c'
I42
sS'b'
I43
sS'e'
I44
sS'd'
I45
sS'g'
I46
sS'f'
I47
sS'i'
I48
sS'h'
I49
sS'k'
I50
sS'j'
I51
sS'm'
I52
sS'l'
I53
sS'o'
I54
sS'n'
I55
sS'q'
I56
sS'p'
I57
sS's'
I58
sS'r'
I59
sS'u'
I60
sS't'
I61
sS'w'
I62
sS'v'
I63
sS'y'
I64
sS'x'
I65
sS'z'
I66
ssS'id_to_word'
p5
(dp6
I0
S'\n'
sI1
S'!'
sI2
S' '
sI3
S'$'
sI4
S"'"
sI5
S'&'
sI6
S'-'
sI7
S','
sI8
S'.'
sI9
S'3'
sI10
S';'
sI11
S':'
sI12
S'?'
sI13
S'A'
sI14
S'C'
sI15
S'B'
sI16
S'E'
sI17
S'D'
sI18
S'G'
sI19
S'F'
sI20
S'I'
sI21
S'H'
sI22
S'K'
sI23
S'J'
sI24
S'M'
sI25
S'L'
sI26
S'O'
sI27
S'N'
sI28
S'Q'
sI29
S'P'
sI30
S'S'
sI31
S'R'
sI32
S'U'
sI33
S'T'
sI34
S'W'
sI35
S'V'
sI36
S'Y'
sI37
S'X'
sI38
S'['
sI39
S'Z'
sI40
S']'
sI41
S'a'
sI42
S'c'
sI43
S'b'
sI44
S'e'
sI45
S'd'
sI46
S'g'
sI47
S'f'
sI48
S'i'
sI49
S'h'
sI50
S'k'
sI51
S'j'
sI52
S'm'
sI53
S'l'
sI54
S'o'
sI55
S'n'
sI56
S'q'
sI57
S'p'
sI58
S's'
sI59
S'r'
sI60
S'u'
sI61
S't'
sI62
S'w'
sI63
S'v'
sI64
S'y'
sI65
S'x'
sI66
S'z'
ssS'max_epoch'
p7
I50
sS'learning_rate'
p8
F0.0070000000000000001
sS'num_steps'
p9
I50
sS'batch_size'
p10
I50
sS'learning_decay'
p11
F0.96999999999999997
sS'hidden_layer_size'
p12
I512
sS'init_range'
p13
F0.080000000000000002
sS'decay_start'
p14
I10
sS'gradient_clip'
p15
I5
sS'number_of_layers'
p16
I3
sS'keep_prob'
p17
F1
s.