(dp1
S'vocab_size'
p2
I56
sS'word_to_id'
p3
(dp4
S'\n'
I0
sS' '
I1
sS"'"
I2
sS'-'
I3
sS'A'
I4
sS'C'
I5
sS'B'
I6
sS'E'
I7
sS'D'
I8
sS'G'
I9
sS'F'
I10
sS'I'
I11
sS'H'
I12
sS'K'
I13
sS'J'
I14
sS'M'
I15
sS'L'
I16
sS'O'
I17
sS'N'
I18
sS'Q'
I19
sS'P'
I20
sS'S'
I21
sS'R'
I22
sS'U'
I23
sS'T'
I24
sS'W'
I25
sS'V'
I26
sS'Y'
I27
sS'X'
I28
sS'Z'
I29
sS'a'
I30
sS'c'
I31
sS'b'
I32
sS'e'
I33
sS'd'
I34
sS'g'
I35
sS'f'
I36
sS'i'
I37
sS'h'
I38
sS'k'
I39
sS'j'
I40
sS'm'
I41
sS'l'
I42
sS'o'
I43
sS'n'
I44
sS'q'
I45
sS'p'
I46
sS's'
I47
sS'r'
I48
sS'u'
I49
sS't'
I50
sS'w'
I51
sS'v'
I52
sS'y'
I53
sS'x'
I54
sS'z'
I55
ssS'id_to_word'
p5
(dp6
I0
S'\n'
sI1
S' '
sI2
S"'"
sI3
S'-'
sI4
S'A'
sI5
S'C'
sI6
S'B'
sI7
S'E'
sI8
S'D'
sI9
S'G'
sI10
S'F'
sI11
S'I'
sI12
S'H'
sI13
S'K'
sI14
S'J'
sI15
S'M'
sI16
S'L'
sI17
S'O'
sI18
S'N'
sI19
S'Q'
sI20
S'P'
sI21
S'S'
sI22
S'R'
sI23
S'U'
sI24
S'T'
sI25
S'W'
sI26
S'V'
sI27
S'Y'
sI28
S'X'
sI29
S'Z'
sI30
S'a'
sI31
S'c'
sI32
S'b'
sI33
S'e'
sI34
S'd'
sI35
S'g'
sI36
S'f'
sI37
S'i'
sI38
S'h'
sI39
S'k'
sI40
S'j'
sI41
S'm'
sI42
S'l'
sI43
S'o'
sI44
S'n'
sI45
S'q'
sI46
S'p'
sI47
S's'
sI48
S'r'
sI49
S'u'
sI50
S't'
sI51
S'w'
sI52
S'v'
sI53
S'y'
sI54
S'x'
sI55
S'z'
ssS'max_epoch'
p7
I50
sS'learning_rate'
p8
F0.002
sS'num_steps'
p9
I50
sS'batch_size'
p10
I50
sS'learning_decay'
p11
F0.96999999999999997
sS'hidden_layer_size'
p12
I128
sS'init_range'
p13
F0.080000000000000002
sS'decay_start'
p14
I10
sS'gradient_clip'
p15
I5
sS'number_of_layers'
p16
I2
sS'keep_prob'
p17
F1
s.